(i__main__
Object
p0
(dp2
S'in_persistent'
p3
I01
sS'tint_sprite_time'
p4
(i__main__
ImMatrix
p5
(dp6
S't'
p7
(I1
I0
I0
I0
I0
I0
I1
I0
I0
I0
I0
I0
I1
I0
I0
I0
I0
I0
I1
I0
I0
I0
I0
I0
I1
tp8
sbsS'config'
p9
(i__main__
Object
p10
(dp11
S'fps_meter'
p12
I01
sS'text_cps'
p13
I40
sg3
I01
sS'ambience_volume'
p14
I100
sS'music_volume'
p15
I100
sS'voice_volume'
p16
I100
sbsS'sprite_time'
p17
S'day'
p18
sb.